target datalayout = "e-m:e-p270:32:32-p271:32:32-p272:64:64-i64:64-i128:128-f80:128-n8:16:32:64-S128"
target triple = "x86_64-pc-linux-gnu"

%struct.AVProbeData = type { ptr, ptr, i32, ptr }

; Function Attrs: nounwind uwtable
define internal i32 @smush_read_probe(ptr noundef %0) #0 {
  %2 = alloca i32, align 4
  %3 = alloca ptr, align 8
  store ptr %0, ptr %3, align 8, !tbaa !4
  %4 = load ptr, ptr %3, align 8, !tbaa !4
  %5 = getelementptr inbounds nuw %struct.AVProbeData, ptr %4, i32 0, i32 1
  %6 = load ptr, ptr %5, align 8, !tbaa !9
  %7 = load i32, ptr %6, align 1, !tbaa !13
  %8 = icmp eq i32 %7, 1296974163
  br i1 %8, label %9, label %16

9:                                                ; preds = %1
  %10 = load ptr, ptr %3, align 8, !tbaa !4
  %11 = getelementptr inbounds nuw %struct.AVProbeData, ptr %10, i32 0, i32 1
  %12 = load ptr, ptr %11, align 8, !tbaa !9
  %13 = getelementptr inbounds i8, ptr %12, i64 8
  %14 = load i32, ptr %13, align 1, !tbaa !13
  %15 = icmp eq i32 %14, 1380206675
  br i1 %15, label %29, label %16

16:                                               ; preds = %9, %1
  %17 = load ptr, ptr %3, align 8, !tbaa !4
  %18 = getelementptr inbounds nuw %struct.AVProbeData, ptr %17, i32 0, i32 1
  %19 = load ptr, ptr %18, align 8, !tbaa !9
  %20 = load i32, ptr %19, align 1, !tbaa !13
  %21 = icmp eq i32 %20, 1296649793
  br i1 %21, label %22, label %30

22:                                               ; preds = %16
  %23 = load ptr, ptr %3, align 8, !tbaa !4
  %24 = getelementptr inbounds nuw %struct.AVProbeData, ptr %23, i32 0, i32 1
  %25 = load ptr, ptr %24, align 8, !tbaa !9
  %26 = getelementptr inbounds i8, ptr %25, i64 8
  %27 = load i32, ptr %26, align 1, !tbaa !13
  %28 = icmp eq i32 %27, 1380206657
  br i1 %28, label %29, label %30

29:                                               ; preds = %22, %9
  store i32 100, ptr %2, align 4
  br label %31

30:                                               ; preds = %22, %16
  store i32 0, ptr %2, align 4
  br label %31

31:                                               ; preds = %30, %29
  %32 = load i32, ptr %2, align 4
  ret i32 %32
}